target datalayout = "e-m:e-p270:32:32-p271:32:32-p272:64:64-i64:64-i128:128-f80:128-n8:16:32:64-S128"
target triple = "x86_64-pc-linux-gnu"

%struct._rtpstream_info = type { %struct._rtpstream_id, i8, ptr, [256 x ptr], ptr, i8, i32, i8, i32, i32, i32, ptr, ptr, %struct.nstime_t, %struct.nstime_t, %struct.nstime_t, i16, i8, i8, %struct._tap_rtp_stat_t, i8, ptr }
%struct._rtpstream_id = type { %struct._address, i16, %struct._address, i16, i32 }
%struct._address = type { i32, i32, ptr, ptr }
%struct.nstime_t = type { i64, i32 }
%struct._tap_rtp_stat_t = type { i8, i32, i16, i64, i64, double, [300 x %struct._bw_history_item], i16, i16, i32, i32, double, double, double, double, double, double, double, double, double, double, double, double, double, double, double, double, double, double, double, i32, i32, i32, i32, i32, i16, i32, i32, i32 }
%struct._bw_history_item = type { double, i32 }
%struct._rtpstream_tapinfo = type { ptr, ptr, ptr, ptr, i32, ptr, ptr, i32, i32, ptr, ptr, ptr, i8, i8 }
%struct._GList = type { ptr, ptr, ptr }

; Function Attrs: null_pointer_is_valid sspstrong uwtable
define hidden void @rtpstream_info_free_data(ptr noundef %0) #2 {
  %2 = alloca ptr, align 8
  store ptr %0, ptr %2, align 8
  %3 = load ptr, ptr %2, align 8
  %4 = getelementptr inbounds nuw %struct._rtpstream_info, ptr %3, i32 0, i32 4
  %5 = load ptr, ptr %4, align 8
  %6 = icmp ne ptr %5, null
  br i1 %6, label %7, label %11

7:                                                ; preds = %1
  %8 = load ptr, ptr %2, align 8
  %9 = getelementptr inbounds nuw %struct._rtpstream_info, ptr %8, i32 0, i32 4
  %10 = load ptr, ptr %9, align 8
  call void @g_free(ptr noundef %10)
  br label %11

11:                                               ; preds = %7, %1
  %12 = load ptr, ptr %2, align 8
  %13 = getelementptr inbounds nuw %struct._rtpstream_info, ptr %12, i32 0, i32 0
  call void @rtpstream_id_free(ptr noundef %13)
  ret void
}

; Function Attrs: null_pointer_is_valid sspstrong uwtable
define hidden void @rtpstream_reset(ptr noundef %0) #2 {
  %2 = alloca ptr, align 8
  %3 = alloca ptr, align 8
  %4 = alloca ptr, align 8
  store ptr %0, ptr %2, align 8
  call void @llvm.lifetime.start.p0(i64 8, ptr %3) #17
  call void @llvm.lifetime.start.p0(i64 8, ptr %4) #17
  %5 = load ptr, ptr %2, align 8
  %6 = getelementptr inbounds nuw %struct._rtpstream_tapinfo, ptr %5, i32 0, i32 8
  %7 = load i32, ptr %6, align 4
  %8 = icmp eq i32 %7, 0
  br i1 %8, label %9, label %58

9:                                                ; preds = %1
  %10 = load ptr, ptr %2, align 8
  %11 = getelementptr inbounds nuw %struct._rtpstream_tapinfo, ptr %10, i32 0, i32 6
  %12 = load ptr, ptr %11, align 8
  %13 = icmp ne ptr %12, null
  br i1 %13, label %14, label %21

14:                                               ; preds = %9
  %15 = load ptr, ptr %2, align 8
  %16 = getelementptr inbounds nuw %struct._rtpstream_tapinfo, ptr %15, i32 0, i32 6
  %17 = load ptr, ptr %16, align 8
  call void @g_hash_table_foreach(ptr noundef %17, ptr noundef @rtpstream_info_multihash_destroy_value, ptr noundef null)
  %18 = load ptr, ptr %2, align 8
  %19 = getelementptr inbounds nuw %struct._rtpstream_tapinfo, ptr %18, i32 0, i32 6
  %20 = load ptr, ptr %19, align 8
  call void @g_hash_table_destroy(ptr noundef %20)
  br label %21

21:                                               ; preds = %14, %9
  %22 = load ptr, ptr %2, align 8
  %23 = getelementptr inbounds nuw %struct._rtpstream_tapinfo, ptr %22, i32 0, i32 5
  %24 = load ptr, ptr %23, align 8
  %25 = call ptr @g_list_first(ptr noundef %24)
  store ptr %25, ptr %3, align 8
  br label %26

26:                                               ; preds = %44, %21
  %27 = load ptr, ptr %3, align 8
  %28 = icmp ne ptr %27, null
  br i1 %28, label %29, label %46

29:                                               ; preds = %26
  %30 = load ptr, ptr %3, align 8
  %31 = getelementptr inbounds nuw %struct._GList, ptr %30, i32 0, i32 0
  %32 = load ptr, ptr %31, align 8
  store ptr %32, ptr %4, align 8
  %33 = load ptr, ptr %4, align 8
  call void @rtpstream_info_free_data(ptr noundef %33)
  %34 = load ptr, ptr %3, align 8
  %35 = getelementptr inbounds nuw %struct._GList, ptr %34, i32 0, i32 0
  %36 = load ptr, ptr %35, align 8
  call void @g_free(ptr noundef %36)
  %37 = load ptr, ptr %3, align 8
  %38 = icmp ne ptr %37, null
  br i1 %38, label %39, label %43

39:                                               ; preds = %29
  %40 = load ptr, ptr %3, align 8
  %41 = getelementptr inbounds nuw %struct._GList, ptr %40, i32 0, i32 1
  %42 = load ptr, ptr %41, align 8
  br label %44

43:                                               ; preds = %29
  br label %44

44:                                               ; preds = %43, %39
  %45 = phi ptr [ %42, %39 ], [ null, %43 ]
  store ptr %45, ptr %3, align 8
  br label %26, !llvm.loop !6

46:                                               ; preds = %26
  %47 = load ptr, ptr %2, align 8
  %48 = getelementptr inbounds nuw %struct._rtpstream_tapinfo, ptr %47, i32 0, i32 5
  %49 = load ptr, ptr %48, align 8
  call void @g_list_free(ptr noundef %49)
  %50 = load ptr, ptr %2, align 8
  %51 = getelementptr inbounds nuw %struct._rtpstream_tapinfo, ptr %50, i32 0, i32 5
  store ptr null, ptr %51, align 8
  %52 = load ptr, ptr %2, align 8
  %53 = getelementptr inbounds nuw %struct._rtpstream_tapinfo, ptr %52, i32 0, i32 6
  store ptr null, ptr %53, align 8
  %54 = load ptr, ptr %2, align 8
  %55 = getelementptr inbounds nuw %struct._rtpstream_tapinfo, ptr %54, i32 0, i32 4
  store i32 0, ptr %55, align 8
  %56 = load ptr, ptr %2, align 8
  %57 = getelementptr inbounds nuw %struct._rtpstream_tapinfo, ptr %56, i32 0, i32 7
  store i32 0, ptr %57, align 8
  br label %58

58:                                               ; preds = %46, %1
  call void @llvm.lifetime.end.p0(i64 8, ptr %4) #17
  call void @llvm.lifetime.end.p0(i64 8, ptr %3) #17
  ret void
}