; Function Attrs: null_pointer_is_valid sspstrong uwtable
define hidden void @rtpstream_reset(ptr noundef captures(none) %0) local_unnamed_addr #1 {
  %2 = getelementptr inbounds nuw i8, ptr %0, i64 60
  %3 = load i32, ptr %2, align 4
  %4 = icmp eq i32 %3, 0
  br i1 %4, label %5, label %23

5:                                                ; preds = %1
  %6 = getelementptr inbounds nuw i8, ptr %0, i64 48
  %7 = load ptr, ptr %6, align 8
  %.not = icmp eq ptr %7, null
  br i1 %.not, label %10, label %8

8:                                                ; preds = %5
  tail call void @g_hash_table_foreach(ptr noundef nonnull %7, ptr noundef nonnull @rtpstream_info_multihash_destroy_value, ptr noundef null)
  %9 = load ptr, ptr %6, align 8
  tail call void @g_hash_table_destroy(ptr noundef %9)
  br label %10

10:                                               ; preds = %8, %5
  %11 = getelementptr inbounds nuw i8, ptr %0, i64 40
  %12 = load ptr, ptr %11, align 8
  %13 = tail call ptr @g_list_first(ptr noundef %12)
  %.not1718 = icmp eq ptr %13, null
  br i1 %.not1718, label %._crit_edge, label %.lr.ph

.lr.ph:                                           ; preds = %10, %rtpstream_info_free_data.exit
  %.019 = phi ptr [ %20, %rtpstream_info_free_data.exit ], [ %13, %10 ]
  %14 = load ptr, ptr %.019, align 8
  %15 = getelementptr inbounds nuw i8, ptr %14, i64 2128
  %16 = load ptr, ptr %15, align 8
  %.not.i = icmp eq ptr %16, null
  br i1 %.not.i, label %rtpstream_info_free_data.exit, label %17

17:                                               ; preds = %.lr.ph
  tail call void @g_free(ptr noundef nonnull %16)
  br label %rtpstream_info_free_data.exit

rtpstream_info_free_data.exit:                    ; preds = %.lr.ph, %17
  tail call void @rtpstream_id_free(ptr noundef %14)
  %18 = load ptr, ptr %.019, align 8
  tail call void @g_free(ptr noundef %18)
  %19 = getelementptr inbounds nuw i8, ptr %.019, i64 8
  %20 = load ptr, ptr %19, align 8
  %.not17 = icmp eq ptr %20, null
  br i1 %.not17, label %._crit_edge, label %.lr.ph, !llvm.loop !6

._crit_edge:                                      ; preds = %rtpstream_info_free_data.exit, %10
  %21 = load ptr, ptr %11, align 8
  tail call void @g_list_free(ptr noundef %21)
  %22 = getelementptr inbounds nuw i8, ptr %0, i64 32
  store i32 0, ptr %22, align 8
  tail call void @llvm.memset.p0.i64(ptr noundef nonnull align 8 dereferenceable(20) %11, i8 0, i64 20, i1 false)
  br label %23

23:                                               ; preds = %._crit_edge, %1
  ret void
}